; Function Attrs: nounwind uwtable
define hidden i32 @lj_record_vload(ptr noundef initializes((184, 190)) %0, i32 noundef %1, i32 noundef %2, i32 noundef %3) local_unnamed_addr #0 {
  %5 = trunc i32 %3 to i16
  %6 = or i16 %5, 18560
  %7 = trunc i32 %1 to i16
  %8 = trunc i32 %2 to i16
  %9 = getelementptr inbounds nuw i8, ptr %0, i64 184
  %10 = getelementptr inbounds nuw i8, ptr %0, i64 188
  store i16 %6, ptr %10, align 4, !tbaa !4
  store i16 %7, ptr %9, align 8, !tbaa !4
  %11 = getelementptr inbounds nuw i8, ptr %0, i64 186
  store i16 %8, ptr %11, align 2, !tbaa !4
  %12 = tail call i32 @lj_opt_fold(ptr noundef %0) #8
  %13 = icmp ult i32 %3, 3
  %reass.sub = mul nuw nsw i32 %3, 16777215
  %14 = add nuw nsw i32 %reass.sub, 32767
  %.0 = select i1 %13, i32 %14, i32 %12
  ret i32 %.0
}